target datalayout = "e-m:e-p270:32:32-p271:32:32-p272:64:64-i64:64-i128:128-f80:128-n8:16:32:64-S128"
target triple = "x86_64-pc-linux-gnu"

%"class.std::__cxx11::basic_string" = type { %"struct.std::__cxx11::basic_string<char>::_Alloc_hider", i64, %union.anon }
%"struct.std::__cxx11::basic_string<char>::_Alloc_hider" = type { ptr }
%union.anon = type { i64, [8 x i8] }
%struct.Node = type <{ %"class.std::__cxx11::basic_string", i64, i64, i32, i8, i8, i8, i8, ptr, %"class.std::vector", %"class.std::vector", i32, [4 x i8] }>
%"class.std::vector" = type { %"struct.std::_Vector_base" }
%"struct.std::_Vector_base" = type { %"struct.std::_Vector_base<Edge *, std::allocator<Edge *>>::_Vector_impl" }
%"struct.std::_Vector_base<Edge *, std::allocator<Edge *>>::_Vector_impl" = type { %"struct.std::_Vector_base<Edge *, std::allocator<Edge *>>::_Vector_impl_data" }
%"struct.std::_Vector_base<Edge *, std::allocator<Edge *>>::_Vector_impl_data" = type { ptr, ptr, ptr }
%"class.__gnu_cxx::__normal_iterator.34" = type { ptr }

@.str.30 = private unnamed_addr constant [35 x i8] c"%s <%s 0x%p> mtime: %ld%s, (:%s), \00", align 1
@.str.31 = private unnamed_addr constant [1 x i8] zeroinitializer, align 1
@.str.32 = private unnamed_addr constant [12 x i8] c" (:missing)\00", align 1
@.str.33 = private unnamed_addr constant [7 x i8] c" dirty\00", align 1
@.str.34 = private unnamed_addr constant [7 x i8] c" clean\00", align 1
@.str.35 = private unnamed_addr constant [10 x i8] c"in-edge: \00", align 1
@.str.36 = private unnamed_addr constant [12 x i8] c"no in-edge\0A\00", align 1
@.str.37 = private unnamed_addr constant [13 x i8] c" out edges:\0A\00", align 1
@.str.38 = private unnamed_addr constant [5 x i8] c" +- \00", align 1
@.str.39 = private unnamed_addr constant [24 x i8] c" validation out edges:\0A\00", align 1

; Function Attrs: inlinehint mustprogress nounwind uwtable
define linkonce_odr dso_local noundef zeroext i1 @_ZN9__gnu_cxxeqIPKP4EdgeSt6vectorIS2_SaIS2_EEEEbRKNS_17__normal_iteratorIT_T0_EESD_(ptr noundef nonnull align 8 dereferenceable(8) %0, ptr noundef nonnull align 8 dereferenceable(8) %1) #2 comdat {
  %3 = alloca ptr, align 8
  %4 = alloca ptr, align 8
  store ptr %0, ptr %3, align 8, !tbaa !186
  store ptr %1, ptr %4, align 8, !tbaa !186
  %5 = load ptr, ptr %3, align 8, !tbaa !186
  %6 = call noundef nonnull align 8 dereferenceable(8) ptr @_ZNK9__gnu_cxx17__normal_iteratorIPKP4EdgeSt6vectorIS2_SaIS2_EEE4baseEv(ptr noundef nonnull align 8 dereferenceable(8) %5) #7
  %7 = load ptr, ptr %6, align 8, !tbaa !188
  %8 = load ptr, ptr %4, align 8, !tbaa !186
  %9 = call noundef nonnull align 8 dereferenceable(8) ptr @_ZNK9__gnu_cxx17__normal_iteratorIPKP4EdgeSt6vectorIS2_SaIS2_EEE4baseEv(ptr noundef nonnull align 8 dereferenceable(8) %8) #7
  %10 = load ptr, ptr %9, align 8, !tbaa !188
  %11 = icmp eq ptr %7, %10
  ret i1 %11
}

; Function Attrs: mustprogress nounwind uwtable
define linkonce_odr dso_local noundef nonnull align 8 dereferenceable(8) ptr @_ZNK9__gnu_cxx17__normal_iteratorIPKP4EdgeSt6vectorIS2_SaIS2_EEE4baseEv(ptr noundef nonnull align 8 dereferenceable(8) %0) #1 comdat align 2 {
  %2 = alloca ptr, align 8
  store ptr %0, ptr %2, align 8, !tbaa !186
  %3 = load ptr, ptr %2, align 8
  %4 = getelementptr inbounds nuw %"class.__gnu_cxx::__normal_iterator.34", ptr %3, i32 0, i32 0
  ret ptr %4
}

; Function Attrs: mustprogress nounwind uwtable
define linkonce_odr dso_local void @_ZN9__gnu_cxx17__normal_iteratorIPKP4EdgeSt6vectorIS2_SaIS2_EEEC2ERKS4_(ptr noundef nonnull align 8 dereferenceable(8) %0, ptr noundef nonnull align 8 dereferenceable(8) %1) unnamed_addr #1 comdat align 2 {
  %3 = alloca ptr, align 8
  %4 = alloca ptr, align 8
  store ptr %0, ptr %3, align 8, !tbaa !186
  store ptr %1, ptr %4, align 8, !tbaa !391
  %5 = load ptr, ptr %3, align 8
  %6 = getelementptr inbounds nuw %"class.__gnu_cxx::__normal_iterator.34", ptr %5, i32 0, i32 0
  %7 = load ptr, ptr %4, align 8, !tbaa !391
  %8 = load ptr, ptr %7, align 8, !tbaa !188
  store ptr %8, ptr %6, align 8, !tbaa !189
  ret void
}

; Function Attrs: mustprogress nounwind uwtable
define available_externally noundef ptr @_ZNKSt7__cxx1112basic_stringIcSt11char_traitsIcESaIcEE7_M_dataEv(ptr noundef nonnull align 8 dereferenceable(32) %0) #1 align 2 {
  %2 = alloca ptr, align 8
  store ptr %0, ptr %2, align 8, !tbaa !11
  %3 = load ptr, ptr %2, align 8
  %4 = getelementptr inbounds nuw %"class.std::__cxx11::basic_string", ptr %3, i32 0, i32 0
  %5 = getelementptr inbounds nuw %"struct.std::__cxx11::basic_string<char>::_Alloc_hider", ptr %4, i32 0, i32 0
  %6 = load ptr, ptr %5, align 8, !tbaa !361
  ret ptr %6
}

; Function Attrs: mustprogress nounwind uwtable
define linkonce_odr dso_local noundef zeroext i1 @_ZNKSt6vectorIP4EdgeSaIS1_EE5emptyEv(ptr noundef nonnull align 8 dereferenceable(24) %0) #1 comdat align 2 {
  %2 = alloca ptr, align 8
  %3 = alloca %"class.__gnu_cxx::__normal_iterator.34", align 8
  %4 = alloca %"class.__gnu_cxx::__normal_iterator.34", align 8
  store ptr %0, ptr %2, align 8, !tbaa !184
  %5 = load ptr, ptr %2, align 8
  call void @llvm.lifetime.start.p0(i64 8, ptr %3) #7
  %6 = call ptr @_ZNKSt6vectorIP4EdgeSaIS1_EE5beginEv(ptr noundef nonnull align 8 dereferenceable(24) %5) #7
  %7 = getelementptr inbounds nuw %"class.__gnu_cxx::__normal_iterator.34", ptr %3, i32 0, i32 0
  store ptr %6, ptr %7, align 8
  call void @llvm.lifetime.start.p0(i64 8, ptr %4) #7
  %8 = call ptr @_ZNKSt6vectorIP4EdgeSaIS1_EE3endEv(ptr noundef nonnull align 8 dereferenceable(24) %5) #7
  %9 = getelementptr inbounds nuw %"class.__gnu_cxx::__normal_iterator.34", ptr %4, i32 0, i32 0
  store ptr %8, ptr %9, align 8
  %10 = call noundef zeroext i1 @_ZN9__gnu_cxxeqIPKP4EdgeSt6vectorIS2_SaIS2_EEEEbRKNS_17__normal_iteratorIT_T0_EESD_(ptr noundef nonnull align 8 dereferenceable(8) %3, ptr noundef nonnull align 8 dereferenceable(8) %4) #7
  call void @llvm.lifetime.end.p0(i64 8, ptr %4) #7
  call void @llvm.lifetime.end.p0(i64 8, ptr %3) #7
  ret i1 %10
}

; Function Attrs: mustprogress nounwind uwtable
define linkonce_odr dso_local noundef nonnull align 8 dereferenceable(24) ptr @_ZNK4Node20validation_out_edgesEv(ptr noundef nonnull align 8 dereferenceable(116) %0) #1 comdat align 2 {
  %2 = alloca ptr, align 8
  store ptr %0, ptr %2, align 8, !tbaa !4
  %3 = load ptr, ptr %2, align 8
  %4 = getelementptr inbounds nuw %struct.Node, ptr %3, i32 0, i32 10
  ret ptr %4
}

; Function Attrs: mustprogress nounwind uwtable
define linkonce_odr dso_local noundef nonnull align 8 dereferenceable(8) ptr @_ZN9__gnu_cxx17__normal_iteratorIPKP4EdgeSt6vectorIS2_SaIS2_EEEppEv(ptr noundef nonnull align 8 dereferenceable(8) %0) #1 comdat align 2 {
  %2 = alloca ptr, align 8
  store ptr %0, ptr %2, align 8, !tbaa !186
  %3 = load ptr, ptr %2, align 8
  %4 = getelementptr inbounds nuw %"class.__gnu_cxx::__normal_iterator.34", ptr %3, i32 0, i32 0
  %5 = load ptr, ptr %4, align 8, !tbaa !189
  %6 = getelementptr inbounds nuw ptr, ptr %5, i32 1
  store ptr %6, ptr %4, align 8, !tbaa !189
  ret ptr %3
}

; Function Attrs: mustprogress nounwind uwtable
define linkonce_odr dso_local noundef nonnull align 8 dereferenceable(8) ptr @_ZNK9__gnu_cxx17__normal_iteratorIPKP4EdgeSt6vectorIS2_SaIS2_EEEdeEv(ptr noundef nonnull align 8 dereferenceable(8) %0) #1 comdat align 2 {
  %2 = alloca ptr, align 8
  store ptr %0, ptr %2, align 8, !tbaa !186
  %3 = load ptr, ptr %2, align 8
  %4 = getelementptr inbounds nuw %"class.__gnu_cxx::__normal_iterator.34", ptr %3, i32 0, i32 0
  %5 = load ptr, ptr %4, align 8, !tbaa !189
  ret ptr %5
}

; Function Attrs: inlinehint mustprogress nounwind uwtable
define linkonce_odr dso_local noundef zeroext i1 @_ZN9__gnu_cxxneIPKP4EdgeSt6vectorIS2_SaIS2_EEEEbRKNS_17__normal_iteratorIT_T0_EESD_(ptr noundef nonnull align 8 dereferenceable(8) %0, ptr noundef nonnull align 8 dereferenceable(8) %1) #2 comdat {
  %3 = alloca ptr, align 8
  %4 = alloca ptr, align 8
  store ptr %0, ptr %3, align 8, !tbaa !186
  store ptr %1, ptr %4, align 8, !tbaa !186
  %5 = load ptr, ptr %3, align 8, !tbaa !186
  %6 = call noundef nonnull align 8 dereferenceable(8) ptr @_ZNK9__gnu_cxx17__normal_iteratorIPKP4EdgeSt6vectorIS2_SaIS2_EEE4baseEv(ptr noundef nonnull align 8 dereferenceable(8) %5) #7
  %7 = load ptr, ptr %6, align 8, !tbaa !188
  %8 = load ptr, ptr %4, align 8, !tbaa !186
  %9 = call noundef nonnull align 8 dereferenceable(8) ptr @_ZNK9__gnu_cxx17__normal_iteratorIPKP4EdgeSt6vectorIS2_SaIS2_EEE4baseEv(ptr noundef nonnull align 8 dereferenceable(8) %8) #7
  %10 = load ptr, ptr %9, align 8, !tbaa !188
  %11 = icmp ne ptr %7, %10
  ret i1 %11
}

; Function Attrs: mustprogress nounwind uwtable
define linkonce_odr dso_local ptr @_ZNKSt6vectorIP4EdgeSaIS1_EE3endEv(ptr noundef nonnull align 8 dereferenceable(24) %0) #1 comdat align 2 {
  %2 = alloca %"class.__gnu_cxx::__normal_iterator.34", align 8
  %3 = alloca ptr, align 8
  store ptr %0, ptr %3, align 8, !tbaa !184
  %4 = load ptr, ptr %3, align 8
  %5 = getelementptr inbounds nuw %"struct.std::_Vector_base", ptr %4, i32 0, i32 0
  %6 = getelementptr inbounds nuw %"struct.std::_Vector_base<Edge *, std::allocator<Edge *>>::_Vector_impl_data", ptr %5, i32 0, i32 1
  call void @_ZN9__gnu_cxx17__normal_iteratorIPKP4EdgeSt6vectorIS2_SaIS2_EEEC2ERKS4_(ptr noundef nonnull align 8 dereferenceable(8) %2, ptr noundef nonnull align 8 dereferenceable(8) %6) #7
  %7 = getelementptr inbounds nuw %"class.__gnu_cxx::__normal_iterator.34", ptr %2, i32 0, i32 0
  %8 = load ptr, ptr %7, align 8
  ret ptr %8
}

; Function Attrs: mustprogress nounwind uwtable
define linkonce_odr dso_local ptr @_ZNKSt6vectorIP4EdgeSaIS1_EE5beginEv(ptr noundef nonnull align 8 dereferenceable(24) %0) #1 comdat align 2 {
  %2 = alloca %"class.__gnu_cxx::__normal_iterator.34", align 8
  %3 = alloca ptr, align 8
  store ptr %0, ptr %3, align 8, !tbaa !184
  %4 = load ptr, ptr %3, align 8
  %5 = getelementptr inbounds nuw %"struct.std::_Vector_base", ptr %4, i32 0, i32 0
  %6 = getelementptr inbounds nuw %"struct.std::_Vector_base<Edge *, std::allocator<Edge *>>::_Vector_impl_data", ptr %5, i32 0, i32 0
  call void @_ZN9__gnu_cxx17__normal_iteratorIPKP4EdgeSt6vectorIS2_SaIS2_EEEC2ERKS4_(ptr noundef nonnull align 8 dereferenceable(8) %2, ptr noundef nonnull align 8 dereferenceable(8) %6) #7
  %7 = getelementptr inbounds nuw %"class.__gnu_cxx::__normal_iterator.34", ptr %2, i32 0, i32 0
  %8 = load ptr, ptr %7, align 8
  ret ptr %8
}

; Function Attrs: mustprogress nounwind uwtable
define linkonce_odr dso_local noundef nonnull align 8 dereferenceable(24) ptr @_ZNK4Node9out_edgesEv(ptr noundef nonnull align 8 dereferenceable(116) %0) #1 comdat align 2 {
  %2 = alloca ptr, align 8
  store ptr %0, ptr %2, align 8, !tbaa !4
  %3 = load ptr, ptr %2, align 8
  %4 = getelementptr inbounds nuw %struct.Node, ptr %3, i32 0, i32 9
  ret ptr %4
}

; Function Attrs: mustprogress nounwind uwtable
define linkonce_odr dso_local noundef ptr @_ZNK4Node7in_edgeEv(ptr noundef nonnull align 8 dereferenceable(116) %0) #1 comdat align 2 {
  %2 = alloca ptr, align 8
  store ptr %0, ptr %2, align 8, !tbaa !4
  %3 = load ptr, ptr %2, align 8
  %4 = getelementptr inbounds nuw %struct.Node, ptr %3, i32 0, i32 8
  %5 = load ptr, ptr %4, align 8, !tbaa !106
  ret ptr %5
}

; Function Attrs: mustprogress nounwind uwtable
define linkonce_odr dso_local noundef zeroext i1 @_ZNK4Node5dirtyEv(ptr noundef nonnull align 8 dereferenceable(116) %0) #1 comdat align 2 {
  %2 = alloca ptr, align 8
  store ptr %0, ptr %2, align 8, !tbaa !4
  %3 = load ptr, ptr %2, align 8
  %4 = getelementptr inbounds nuw %struct.Node, ptr %3, i32 0, i32 4
  %5 = load i8, ptr %4, align 4, !tbaa !112, !range !79, !noundef !80
  %6 = trunc i8 %5 to i1
  ret i1 %6
}

; Function Attrs: mustprogress nounwind uwtable
define linkonce_odr dso_local noundef zeroext i1 @_ZNK4Node6existsEv(ptr noundef nonnull align 8 dereferenceable(116) %0) #1 comdat align 2 {
  %2 = alloca ptr, align 8
  store ptr %0, ptr %2, align 8, !tbaa !4
  %3 = load ptr, ptr %2, align 8
  %4 = getelementptr inbounds nuw %struct.Node, ptr %3, i32 0, i32 3
  %5 = load i32, ptr %4, align 8, !tbaa !31
  %6 = icmp eq i32 %5, 2
  ret i1 %6
}

; Function Attrs: mustprogress nounwind uwtable
define linkonce_odr dso_local noundef i64 @_ZNK4Node5mtimeEv(ptr noundef nonnull align 8 dereferenceable(116) %0) #1 comdat align 2 {
  %2 = alloca ptr, align 8
  store ptr %0, ptr %2, align 8, !tbaa !4
  %3 = load ptr, ptr %2, align 8
  %4 = getelementptr inbounds nuw %struct.Node, ptr %3, i32 0, i32 2
  %5 = load i64, ptr %4, align 8, !tbaa !15
  ret i64 %5
}

; Function Attrs: mustprogress nounwind uwtable
define available_externally noundef ptr @_ZNKSt7__cxx1112basic_stringIcSt11char_traitsIcESaIcEE5c_strEv(ptr noundef nonnull align 8 dereferenceable(32) %0) #1 align 2 {
  %2 = alloca ptr, align 8
  store ptr %0, ptr %2, align 8, !tbaa !11
  %3 = load ptr, ptr %2, align 8
  %4 = call noundef ptr @_ZNKSt7__cxx1112basic_stringIcSt11char_traitsIcESaIcEE7_M_dataEv(ptr noundef nonnull align 8 dereferenceable(32) %3)
  ret ptr %4
}

; Function Attrs: mustprogress nounwind uwtable
define linkonce_odr dso_local noundef nonnull align 8 dereferenceable(32) ptr @_ZNK4Node4pathB5cxx11Ev(ptr noundef nonnull align 8 dereferenceable(116) %0) #1 comdat align 2 {
  %2 = alloca ptr, align 8
  store ptr %0, ptr %2, align 8, !tbaa !4
  %3 = load ptr, ptr %2, align 8
  %4 = getelementptr inbounds nuw %struct.Node, ptr %3, i32 0, i32 0
  ret ptr %4
}

; Function Attrs: mustprogress uwtable
define dso_local void @_ZNK4Node4DumpEPKc(ptr noundef nonnull align 8 dereferenceable(116) %0, ptr noundef %1) #0 align 2 {
  %3 = alloca ptr, align 8
  %4 = alloca ptr, align 8
  %5 = alloca %"class.__gnu_cxx::__normal_iterator.34", align 8
  %6 = alloca %"class.__gnu_cxx::__normal_iterator.34", align 8
  %7 = alloca %"class.__gnu_cxx::__normal_iterator.34", align 8
  %8 = alloca %"class.__gnu_cxx::__normal_iterator.34", align 8
  store ptr %0, ptr %3, align 8, !tbaa !4
  store ptr %1, ptr %4, align 8, !tbaa !110
  %9 = load ptr, ptr %3, align 8
  %10 = load ptr, ptr %4, align 8, !tbaa !110
  %11 = call noundef nonnull align 8 dereferenceable(32) ptr @_ZNK4Node4pathB5cxx11Ev(ptr noundef nonnull align 8 dereferenceable(116) %9)
  %12 = call noundef ptr @_ZNKSt7__cxx1112basic_stringIcSt11char_traitsIcESaIcEE5c_strEv(ptr noundef nonnull align 8 dereferenceable(32) %11) #7
  %13 = call noundef i64 @_ZNK4Node5mtimeEv(ptr noundef nonnull align 8 dereferenceable(116) %9)
  %14 = call noundef zeroext i1 @_ZNK4Node6existsEv(ptr noundef nonnull align 8 dereferenceable(116) %9)
  %15 = select i1 %14, ptr @.str.31, ptr @.str.32
  %16 = call noundef zeroext i1 @_ZNK4Node5dirtyEv(ptr noundef nonnull align 8 dereferenceable(116) %9)
  br i1 %16, label %17, label %18

17:                                               ; preds = %2
  br label %19

18:                                               ; preds = %2
  br label %19

19:                                               ; preds = %18, %17
  %20 = phi ptr [ @.str.33, %17 ], [ @.str.34, %18 ]
  %21 = getelementptr inbounds [7 x i8], ptr %20, i64 0, i64 0
  %22 = call i32 (ptr, ...) @printf(ptr noundef @.str.30, ptr noundef %10, ptr noundef %12, ptr noundef %9, i64 noundef %13, ptr noundef %15, ptr noundef %21)
  %23 = call noundef ptr @_ZNK4Node7in_edgeEv(ptr noundef nonnull align 8 dereferenceable(116) %9)
  %24 = icmp ne ptr %23, null
  br i1 %24, label %25, label %27

25:                                               ; preds = %19
  %26 = call noundef ptr @_ZNK4Node7in_edgeEv(ptr noundef nonnull align 8 dereferenceable(116) %9)
  call void @_ZNK4Edge4DumpEPKc(ptr noundef nonnull align 8 dereferenceable(168) %26, ptr noundef @.str.35)
  br label %29

27:                                               ; preds = %19
  %28 = call i32 (ptr, ...) @printf(ptr noundef @.str.36)
  br label %29

29:                                               ; preds = %27, %25
  %30 = call i32 (ptr, ...) @printf(ptr noundef @.str.37)
  call void @llvm.lifetime.start.p0(i64 8, ptr %5) #7
  %31 = call noundef nonnull align 8 dereferenceable(24) ptr @_ZNK4Node9out_edgesEv(ptr noundef nonnull align 8 dereferenceable(116) %9)
  %32 = call ptr @_ZNKSt6vectorIP4EdgeSaIS1_EE5beginEv(ptr noundef nonnull align 8 dereferenceable(24) %31) #7
  %33 = getelementptr inbounds nuw %"class.__gnu_cxx::__normal_iterator.34", ptr %5, i32 0, i32 0
  store ptr %32, ptr %33, align 8
  br label %34

34:                                               ; preds = %49, %29
  call void @llvm.lifetime.start.p0(i64 8, ptr %6) #7
  %35 = call noundef nonnull align 8 dereferenceable(24) ptr @_ZNK4Node9out_edgesEv(ptr noundef nonnull align 8 dereferenceable(116) %9)
  %36 = call ptr @_ZNKSt6vectorIP4EdgeSaIS1_EE3endEv(ptr noundef nonnull align 8 dereferenceable(24) %35) #7
  %37 = getelementptr inbounds nuw %"class.__gnu_cxx::__normal_iterator.34", ptr %6, i32 0, i32 0
  store ptr %36, ptr %37, align 8
  %38 = call noundef zeroext i1 @_ZN9__gnu_cxxneIPKP4EdgeSt6vectorIS2_SaIS2_EEEEbRKNS_17__normal_iteratorIT_T0_EESD_(ptr noundef nonnull align 8 dereferenceable(8) %5, ptr noundef nonnull align 8 dereferenceable(8) %6) #7
  br i1 %38, label %39, label %43

39:                                               ; preds = %34
  %40 = call noundef nonnull align 8 dereferenceable(8) ptr @_ZNK9__gnu_cxx17__normal_iteratorIPKP4EdgeSt6vectorIS2_SaIS2_EEEdeEv(ptr noundef nonnull align 8 dereferenceable(8) %5) #7
  %41 = load ptr, ptr %40, align 8, !tbaa !55
  %42 = icmp ne ptr %41, null
  br label %43

43:                                               ; preds = %39, %34
  %44 = phi i1 [ false, %34 ], [ %42, %39 ]
  call void @llvm.lifetime.end.p0(i64 8, ptr %6) #7
  br i1 %44, label %46, label %45

45:                                               ; preds = %43
  call void @llvm.lifetime.end.p0(i64 8, ptr %5) #7
  br label %51

46:                                               ; preds = %43
  %47 = call noundef nonnull align 8 dereferenceable(8) ptr @_ZNK9__gnu_cxx17__normal_iteratorIPKP4EdgeSt6vectorIS2_SaIS2_EEEdeEv(ptr noundef nonnull align 8 dereferenceable(8) %5) #7
  %48 = load ptr, ptr %47, align 8, !tbaa !55
  call void @_ZNK4Edge4DumpEPKc(ptr noundef nonnull align 8 dereferenceable(168) %48, ptr noundef @.str.38)
  br label %49

49:                                               ; preds = %46
  %50 = call noundef nonnull align 8 dereferenceable(8) ptr @_ZN9__gnu_cxx17__normal_iteratorIPKP4EdgeSt6vectorIS2_SaIS2_EEEppEv(ptr noundef nonnull align 8 dereferenceable(8) %5) #7
  br label %34, !llvm.loop !182

51:                                               ; preds = %45
  %52 = call noundef nonnull align 8 dereferenceable(24) ptr @_ZNK4Node20validation_out_edgesEv(ptr noundef nonnull align 8 dereferenceable(116) %9)
  %53 = call noundef zeroext i1 @_ZNKSt6vectorIP4EdgeSaIS1_EE5emptyEv(ptr noundef nonnull align 8 dereferenceable(24) %52) #7
  br i1 %53, label %77, label %54

54:                                               ; preds = %51
  %55 = call i32 (ptr, ...) @printf(ptr noundef @.str.39)
  call void @llvm.lifetime.start.p0(i64 8, ptr %7) #7
  %56 = call noundef nonnull align 8 dereferenceable(24) ptr @_ZNK4Node20validation_out_edgesEv(ptr noundef nonnull align 8 dereferenceable(116) %9)
  %57 = call ptr @_ZNKSt6vectorIP4EdgeSaIS1_EE5beginEv(ptr noundef nonnull align 8 dereferenceable(24) %56) #7
  %58 = getelementptr inbounds nuw %"class.__gnu_cxx::__normal_iterator.34", ptr %7, i32 0, i32 0
  store ptr %57, ptr %58, align 8
  br label %59

59:                                               ; preds = %74, %54
  call void @llvm.lifetime.start.p0(i64 8, ptr %8) #7
  %60 = call noundef nonnull align 8 dereferenceable(24) ptr @_ZNK4Node20validation_out_edgesEv(ptr noundef nonnull align 8 dereferenceable(116) %9)
  %61 = call ptr @_ZNKSt6vectorIP4EdgeSaIS1_EE3endEv(ptr noundef nonnull align 8 dereferenceable(24) %60) #7
  %62 = getelementptr inbounds nuw %"class.__gnu_cxx::__normal_iterator.34", ptr %8, i32 0, i32 0
  store ptr %61, ptr %62, align 8
  %63 = call noundef zeroext i1 @_ZN9__gnu_cxxneIPKP4EdgeSt6vectorIS2_SaIS2_EEEEbRKNS_17__normal_iteratorIT_T0_EESD_(ptr noundef nonnull align 8 dereferenceable(8) %7, ptr noundef nonnull align 8 dereferenceable(8) %8) #7
  br i1 %63, label %64, label %68

64:                                               ; preds = %59
  %65 = call noundef nonnull align 8 dereferenceable(8) ptr @_ZNK9__gnu_cxx17__normal_iteratorIPKP4EdgeSt6vectorIS2_SaIS2_EEEdeEv(ptr noundef nonnull align 8 dereferenceable(8) %7) #7
  %66 = load ptr, ptr %65, align 8, !tbaa !55
  %67 = icmp ne ptr %66, null
  br label %68

68:                                               ; preds = %64, %59
  %69 = phi i1 [ false, %59 ], [ %67, %64 ]
  call void @llvm.lifetime.end.p0(i64 8, ptr %8) #7
  br i1 %69, label %71, label %70

70:                                               ; preds = %68
  call void @llvm.lifetime.end.p0(i64 8, ptr %7) #7
  br label %76

71:                                               ; preds = %68
  %72 = call noundef nonnull align 8 dereferenceable(8) ptr @_ZNK9__gnu_cxx17__normal_iteratorIPKP4EdgeSt6vectorIS2_SaIS2_EEEdeEv(ptr noundef nonnull align 8 dereferenceable(8) %7) #7
  %73 = load ptr, ptr %72, align 8, !tbaa !55
  call void @_ZNK4Edge4DumpEPKc(ptr noundef nonnull align 8 dereferenceable(168) %73, ptr noundef @.str.38)
  br label %74

74:                                               ; preds = %71
  %75 = call noundef nonnull align 8 dereferenceable(8) ptr @_ZN9__gnu_cxx17__normal_iteratorIPKP4EdgeSt6vectorIS2_SaIS2_EEEppEv(ptr noundef nonnull align 8 dereferenceable(8) %7) #7
  br label %59, !llvm.loop !183

76:                                               ; preds = %70
  br label %77

77:                                               ; preds = %76, %51
  ret void
}