; Function Attrs: mustprogress nofree nounwind uwtable
define dso_local void @_ZNK4Node4DumpEPKc(ptr noundef nonnull align 8 dereferenceable(116) %0, ptr noundef %1) local_unnamed_addr #8 align 2 {
  %3 = load ptr, ptr %0, align 8, !tbaa !78
  %4 = getelementptr inbounds nuw i8, ptr %0, i64 40
  %5 = load i64, ptr %4, align 8, !tbaa !7
  %6 = getelementptr inbounds nuw i8, ptr %0, i64 48
  %7 = load i32, ptr %6, align 8, !tbaa !25
  %8 = icmp eq i32 %7, 2
  %9 = select i1 %8, ptr @.str.31, ptr @.str.32
  %10 = getelementptr inbounds nuw i8, ptr %0, i64 52
  %11 = load i8, ptr %10, align 4, !tbaa !79, !range !92, !noundef !93
  %12 = trunc nuw i8 %11 to i1
  %.str.33..str.34 = select i1 %12, ptr @.str.33, ptr @.str.34
  %13 = tail call i32 (ptr, ...) @printf(ptr noundef nonnull dereferenceable(1) @.str.30, ptr noundef %1, ptr noundef %3, ptr noundef nonnull %0, i64 noundef %5, ptr noundef nonnull %9, ptr noundef nonnull %.str.33..str.34)
  %14 = getelementptr inbounds nuw i8, ptr %0, i64 56
  %15 = load ptr, ptr %14, align 8, !tbaa !66
  %.not = icmp eq ptr %15, null
  br i1 %.not, label %17, label %16

16:                                               ; preds = %2
  tail call void @_ZNK4Edge4DumpEPKc(ptr noundef nonnull align 8 dereferenceable(168) %15, ptr noundef nonnull @.str.35)
  br label %18

17:                                               ; preds = %2
  %puts = tail call i32 @puts(ptr nonnull dereferenceable(1) @str)
  br label %18

18:                                               ; preds = %17, %16
  %puts4 = tail call i32 @puts(ptr nonnull dereferenceable(1) @str.1)
  %19 = getelementptr inbounds nuw i8, ptr %0, i64 64
  %20 = load ptr, ptr %19, align 8, !tbaa !161
  %21 = getelementptr inbounds nuw i8, ptr %0, i64 72
  %22 = load ptr, ptr %21, align 8, !tbaa !161
  %.not1719 = icmp eq ptr %20, %22
  br i1 %.not1719, label %.critedge, label %.lr.ph

.lr.ph:                                           ; preds = %18, %29
  %.sroa.013.020 = phi ptr [ %30, %29 ], [ %20, %18 ]
  %23 = load ptr, ptr %.sroa.013.020, align 8, !tbaa !162
  %.not5 = icmp eq ptr %23, null
  br i1 %.not5, label %.critedge, label %29

.critedge:                                        ; preds = %.lr.ph, %29, %18
  %24 = getelementptr inbounds nuw i8, ptr %0, i64 88
  %25 = load ptr, ptr %24, align 8, !tbaa !161
  %26 = getelementptr inbounds nuw i8, ptr %0, i64 96
  %27 = load ptr, ptr %26, align 8, !tbaa !161
  %28 = icmp eq ptr %25, %27
  br i1 %28, label %.critedge2, label %32

29:                                               ; preds = %.lr.ph
  tail call void @_ZNK4Edge4DumpEPKc(ptr noundef nonnull align 8 dereferenceable(168) %23, ptr noundef nonnull @.str.38)
  %30 = getelementptr inbounds nuw i8, ptr %.sroa.013.020, i64 8
  %31 = load ptr, ptr %21, align 8, !tbaa !161
  %.not17 = icmp eq ptr %30, %31
  br i1 %.not17, label %.critedge, label %.lr.ph, !llvm.loop !163

32:                                               ; preds = %.critedge
  %puts6 = tail call i32 @puts(ptr nonnull dereferenceable(1) @str.2)
  %33 = load ptr, ptr %24, align 8, !tbaa !161
  %34 = load ptr, ptr %26, align 8, !tbaa !161
  %.not1822 = icmp eq ptr %33, %34
  br i1 %.not1822, label %.critedge2, label %.lr.ph24

.lr.ph24:                                         ; preds = %32, %36
  %.sroa.08.023 = phi ptr [ %37, %36 ], [ %33, %32 ]
  %35 = load ptr, ptr %.sroa.08.023, align 8, !tbaa !162
  %.not7 = icmp eq ptr %35, null
  br i1 %.not7, label %.critedge2, label %36

36:                                               ; preds = %.lr.ph24
  tail call void @_ZNK4Edge4DumpEPKc(ptr noundef nonnull align 8 dereferenceable(168) %35, ptr noundef nonnull @.str.38)
  %37 = getelementptr inbounds nuw i8, ptr %.sroa.08.023, i64 8
  %38 = load ptr, ptr %26, align 8, !tbaa !161
  %.not18 = icmp eq ptr %37, %38
  br i1 %.not18, label %.critedge2, label %.lr.ph24, !llvm.loop !164

.critedge2:                                       ; preds = %36, %.lr.ph24, %32, %.critedge
  ret void
}